; ModuleID = 'source-C-CXX/36/554.c'
source_filename = "source-C-CXX/36/554.c"
target datalayout = "e-m:e-p270:32:32-p271:32:32-p272:64:64-i64:64-f80:128-n8:16:32:64-S128"
target triple = "x86_64-pc-linux-gnu"

@.str = private unnamed_addr constant [3 x i8] c"%d\00", align 1
@.str.1 = private unnamed_addr constant [3 x i8] c"%s\00", align 1
@.str.2 = private unnamed_addr constant [4 x i8] c"%c\0A\00", align 1
@str = private unnamed_addr constant [3 x i8] c"no\00", align 1

; Function Attrs: nofree nounwind sspstrong uwtable
define dso_local i32 @main() local_unnamed_addr #0 {
  %1 = alloca [1000 x i8], align 16
  %2 = alloca [26 x i32], align 16
  %3 = bitcast [26 x i32]* %2 to i8*
  %4 = alloca i32, align 4
  %5 = getelementptr inbounds [1000 x i8], [1000 x i8]* %1, i64 0, i64 0
  call void @llvm.lifetime.start.p0i8(i64 1000, i8* nonnull %5) #6
  call void @llvm.lifetime.start.p0i8(i64 104, i8* nonnull %3) #6
  %6 = bitcast i32* %4 to i8*
  call void @llvm.lifetime.start.p0i8(i64 4, i8* nonnull %6) #6
  %7 = call i32 (i8*, ...) @__isoc99_scanf(i8* getelementptr inbounds ([3 x i8], [3 x i8]* @.str, i64 0, i64 0), i32* nonnull %4)
  %8 = load i32, i32* %4, align 4, !tbaa !5
  %9 = icmp sgt i32 %8, 0
  br i1 %9, label %10, label %78

10:                                               ; preds = %0, %74
  %11 = phi i32 [ %75, %74 ], [ 0, %0 ]
  %12 = call i32 (i8*, ...) @__isoc99_scanf(i8* getelementptr inbounds ([3 x i8], [3 x i8]* @.str.1, i64 0, i64 0), i8* nonnull %5)
  %13 = call i64 @strlen(i8* noundef nonnull %5) #7
  call void @llvm.memset.p0i8.i64(i8* noundef nonnull align 16 dereferenceable(104) %3, i8 0, i64 104, i1 false)
  %14 = trunc i64 %13 to i32
  %15 = icmp sgt i32 %14, 0
  br i1 %15, label %16, label %72

16:                                               ; preds = %10
  %17 = and i64 %13, 4294967295
  %18 = and i64 %13, 1
  %19 = icmp eq i64 %17, 1
  br i1 %19, label %22, label %20

20:                                               ; preds = %16
  %21 = sub nsw i64 %17, %18
  br label %36

22:                                               ; preds = %36, %16
  %23 = phi i64 [ 0, %16 ], [ %54, %36 ]
  %24 = icmp eq i64 %18, 0
  br i1 %24, label %33, label %25

25:                                               ; preds = %22
  %26 = getelementptr inbounds [1000 x i8], [1000 x i8]* %1, i64 0, i64 %23
  %27 = load i8, i8* %26, align 1, !tbaa !9
  %28 = sext i8 %27 to i64
  %29 = add nsw i64 %28, -97
  %30 = getelementptr inbounds [26 x i32], [26 x i32]* %2, i64 0, i64 %29
  %31 = load i32, i32* %30, align 4, !tbaa !5
  %32 = add nsw i32 %31, 1
  store i32 %32, i32* %30, align 4, !tbaa !5
  br label %33

33:                                               ; preds = %22, %25
  br i1 %15, label %34, label %72

34:                                               ; preds = %33
  %35 = and i64 %13, 4294967295
  br label %59

36:                                               ; preds = %36, %20
  %37 = phi i64 [ 0, %20 ], [ %54, %36 ]
  %38 = phi i64 [ %21, %20 ], [ %55, %36 ]
  %39 = getelementptr inbounds [1000 x i8], [1000 x i8]* %1, i64 0, i64 %37
  %40 = load i8, i8* %39, align 2, !tbaa !9
  %41 = sext i8 %40 to i64
  %42 = add nsw i64 %41, -97
  %43 = getelementptr inbounds [26 x i32], [26 x i32]* %2, i64 0, i64 %42
  %44 = load i32, i32* %43, align 4, !tbaa !5
  %45 = add nsw i32 %44, 1
  store i32 %45, i32* %43, align 4, !tbaa !5
  %46 = or i64 %37, 1
  %47 = getelementptr inbounds [1000 x i8], [1000 x i8]* %1, i64 0, i64 %46
  %48 = load i8, i8* %47, align 1, !tbaa !9
  %49 = sext i8 %48 to i64
  %50 = add nsw i64 %49, -97
  %51 = getelementptr inbounds [26 x i32], [26 x i32]* %2, i64 0, i64 %50
  %52 = load i32, i32* %51, align 4, !tbaa !5
  %53 = add nsw i32 %52, 1
  store i32 %53, i32* %51, align 4, !tbaa !5
  %54 = add nuw nsw i64 %37, 2
  %55 = add i64 %38, -2
  %56 = icmp eq i64 %55, 0
  br i1 %56, label %22, label %36, !llvm.loop !10

57:                                               ; preds = %59
  %58 = icmp eq i64 %68, %35
  br i1 %58, label %72, label %59, !llvm.loop !12

59:                                               ; preds = %34, %57
  %60 = phi i64 [ 0, %34 ], [ %68, %57 ]
  %61 = getelementptr inbounds [1000 x i8], [1000 x i8]* %1, i64 0, i64 %60
  %62 = load i8, i8* %61, align 1, !tbaa !9
  %63 = sext i8 %62 to i64
  %64 = add nsw i64 %63, -97
  %65 = getelementptr inbounds [26 x i32], [26 x i32]* %2, i64 0, i64 %64
  %66 = load i32, i32* %65, align 4, !tbaa !5
  %67 = icmp eq i32 %66, 1
  %68 = add nuw nsw i64 %60, 1
  br i1 %67, label %69, label %57

69:                                               ; preds = %59
  %70 = sext i8 %62 to i32
  %71 = call i32 (i8*, ...) @printf(i8* nonnull dereferenceable(1) getelementptr inbounds ([4 x i8], [4 x i8]* @.str.2, i64 0, i64 0), i32 %70)
  br label %74

72:                                               ; preds = %57, %10, %33
  %73 = call i32 @puts(i8* nonnull dereferenceable(1) getelementptr inbounds ([3 x i8], [3 x i8]* @str, i64 0, i64 0))
  br label %74

74:                                               ; preds = %69, %72
  %75 = add nuw nsw i32 %11, 1
  %76 = load i32, i32* %4, align 4, !tbaa !5
  %77 = icmp slt i32 %75, %76
  br i1 %77, label %10, label %78, !llvm.loop !13

78:                                               ; preds = %74, %0
  call void @llvm.lifetime.end.p0i8(i64 4, i8* nonnull %6) #6
  call void @llvm.lifetime.end.p0i8(i64 104, i8* nonnull %3) #6
  call void @llvm.lifetime.end.p0i8(i64 1000, i8* nonnull %5) #6
  ret i32 0
}

; Function Attrs: argmemonly mustprogress nofree nosync nounwind willreturn
declare void @llvm.lifetime.start.p0i8(i64 immarg, i8* nocapture) #1

; Function Attrs: nofree nounwind
declare noundef i32 @__isoc99_scanf(i8* nocapture noundef readonly, ...) local_unnamed_addr #2

; Function Attrs: argmemonly mustprogress nofree nounwind readonly willreturn
declare i64 @strlen(i8* nocapture) local_unnamed_addr #3

; Function Attrs: nofree nounwind
declare noundef i32 @printf(i8* nocapture noundef readonly, ...) local_unnamed_addr #2

; Function Attrs: argmemonly mustprogress nofree nosync nounwind willreturn
declare void @llvm.lifetime.end.p0i8(i64 immarg, i8* nocapture) #1

; Function Attrs: nofree nounwind
declare noundef i32 @puts(i8* nocapture noundef readonly) local_unnamed_addr #4

; Function Attrs: argmemonly nofree nounwind willreturn writeonly
declare void @llvm.memset.p0i8.i64(i8* nocapture writeonly, i8, i64, i1 immarg) #5


!llvm.module.flags = !{!0, !1, !2, !3}
!llvm.ident = !{!4}

!0 = !{i32 1, !"wchar_size", i32 4}
!1 = !{i32 7, !"PIC Level", i32 2}
!2 = !{i32 7, !"PIE Level", i32 2}
!3 = !{i32 7, !"uwtable", i32 1}
!4 = !{!"clang version 13.0.0"}
!5 = !{!6, !6, i64 0}
!6 = !{!"int", !7, i64 0}
!7 = !{!"omnipotent char", !8, i64 0}
!8 = !{!"Simple C/C++ TBAA"}
!9 = !{!7, !7, i64 0}
!10 = distinct !{!10, !11}
!11 = !{!"llvm.loop.mustprogress"}
!12 = distinct !{!12, !11}
!13 = distinct !{!13, !11}
